; Function Attrs: mustprogress uwtable
define void @_ZNK10open_spiel9laser_tag13LaserTagState17ObservationTensorEiN4absl7debian24SpanIfEE(ptr nocapture noundef nonnull readonly align 8 dereferenceable(240) %0, i32 noundef %1, ptr %2, i64 %3) unnamed_addr #3 align 2 personality ptr @__gxx_personality_v0 {
  %5 = alloca i32, align 4
  %6 = alloca i32, align 4
  %7 = alloca %"class.std::__cxx11::basic_string", align 8
  %8 = alloca i32, align 4
  %9 = alloca i32, align 4
  %10 = alloca i32, align 4
  %11 = alloca %"class.std::__cxx11::basic_string", align 8
  %12 = alloca i32, align 4
  store i32 %1, ptr %5, align 4
  store i32 0, ptr %6, align 4
  %13 = icmp sgt i32 %1, -1
  br i1 %13, label %18, label %14

14:                                               ; preds = %4
  store i32 593, ptr %8, align 4
  call void @_ZN10open_spiel8internal11SpielStrCatIJRA138_KcRA2_S2_iS6_RA12_S2_RA8_S2_RA4_S2_RiRA7_S2_SD_EEENSt7__cxx1112basic_stringIcSt11char_traitsIcESaIcEEEDpOT_(ptr dead_on_unwind nonnull writable sret(%"class.std::__cxx11::basic_string") align 8 %7, ptr noundef nonnull align 1 dereferenceable(138) @.str.14, ptr noundef nonnull align 1 dereferenceable(2) @.str.15, ptr noundef nonnull align 4 dereferenceable(4) %8, ptr noundef nonnull align 1 dereferenceable(2) @.str.16, ptr noundef nonnull align 1 dereferenceable(12) @.str.62, ptr noundef nonnull align 1 dereferenceable(8) @.str.63, ptr noundef nonnull align 1 dereferenceable(4) @.str.19, ptr noundef nonnull align 4 dereferenceable(4) %5, ptr noundef nonnull align 1 dereferenceable(7) @.str.20, ptr noundef nonnull align 4 dereferenceable(4) %6)
  invoke void @_ZN10open_spiel15SpielFatalErrorERKNSt7__cxx1112basic_stringIcSt11char_traitsIcESaIcEEE(ptr noundef nonnull align 8 dereferenceable(32) %7) #25
          to label %15 unwind label %16

15:                                               ; preds = %14
  unreachable

16:                                               ; preds = %14
  %17 = landingpad { ptr, i32 }
          cleanup
  br label %33

18:                                               ; preds = %4
  store i32 %1, ptr %9, align 4
  %19 = getelementptr inbounds nuw i8, ptr %0, i64 28
  %20 = load i32, ptr %19, align 4
  store i32 %20, ptr %10, align 4
  %21 = icmp slt i32 %1, %20
  br i1 %21, label %26, label %22

22:                                               ; preds = %18
  store i32 594, ptr %12, align 4
  call void @_ZN10open_spiel8internal11SpielStrCatIJRA138_KcRA2_S2_iS6_RA22_S2_RA8_S2_RA4_S2_RiRA18_S2_SD_EEENSt7__cxx1112basic_stringIcSt11char_traitsIcESaIcEEEDpOT_(ptr dead_on_unwind nonnull writable sret(%"class.std::__cxx11::basic_string") align 8 %11, ptr noundef nonnull align 1 dereferenceable(138) @.str.14, ptr noundef nonnull align 1 dereferenceable(2) @.str.15, ptr noundef nonnull align 4 dereferenceable(4) %12, ptr noundef nonnull align 1 dereferenceable(2) @.str.16, ptr noundef nonnull align 1 dereferenceable(22) @.str.64, ptr noundef nonnull align 1 dereferenceable(8) @.str.63, ptr noundef nonnull align 1 dereferenceable(4) @.str.19, ptr noundef nonnull align 4 dereferenceable(4) %9, ptr noundef nonnull align 1 dereferenceable(18) @.str.65, ptr noundef nonnull align 4 dereferenceable(4) %10)
  invoke void @_ZN10open_spiel15SpielFatalErrorERKNSt7__cxx1112basic_stringIcSt11char_traitsIcESaIcEEE(ptr noundef nonnull align 8 dereferenceable(32) %11) #25
          to label %23 unwind label %24

23:                                               ; preds = %22
  unreachable

24:                                               ; preds = %22
  %25 = landingpad { ptr, i32 }
          cleanup
  br label %33

26:                                               ; preds = %18
  %27 = getelementptr inbounds nuw i8, ptr %0, i64 89
  %28 = load i8, ptr %27, align 1
  %29 = trunc i8 %28 to i1
  br i1 %29, label %30, label %31

30:                                               ; preds = %26
  tail call void @_ZNK10open_spiel9laser_tag13LaserTagState21FullObservationTensorEN4absl7debian24SpanIfEE(ptr noundef nonnull align 8 dereferenceable(240) %0, ptr %2, i64 %3)
  br label %32

31:                                               ; preds = %26
  tail call void @_ZNK10open_spiel9laser_tag13LaserTagState24PartialObservationTensorEiN4absl7debian24SpanIfEE(ptr noundef nonnull align 8 dereferenceable(240) %0, i32 noundef %1, ptr %2, i64 %3)
  br label %32

32:                                               ; preds = %31, %30
  ret void

33:                                               ; preds = %24, %16
  %.sink = phi ptr [ %11, %24 ], [ %7, %16 ]
  %.pn = phi { ptr, i32 } [ %25, %24 ], [ %17, %16 ]
  call void @_ZNSt7__cxx1112basic_stringIcSt11char_traitsIcESaIcEED1Ev(ptr noundef nonnull align 8 dereferenceable(32) %.sink) #26
  resume { ptr, i32 } %.pn
}